target datalayout = "e-m:e-p270:32:32-p271:32:32-p272:64:64-i64:64-i128:128-f80:128-n8:16:32:64-S128"
target triple = "x86_64-pc-linux-gnu"

%"class.clang::OMPExecutableDirective" = type { %"class.clang::Stmt", i32, %"class.clang::SourceLocation", %"class.clang::SourceLocation", ptr }
%"class.clang::Stmt" = type { %union.anon }
%union.anon = type { %"class.clang::Stmt::PseudoObjectExprBitfields" }
%"class.clang::Stmt::PseudoObjectExprBitfields" = type { i64 }
%"class.clang::SourceLocation" = type { i32 }
%"class.clang::OMPCancellationPointDirective" = type <{ %"class.clang::OMPExecutableDirective", i32, [4 x i8] }>

@_ZN5clang4Stmt17StatisticsEnabledE = external global i8, align 1

; Function Attrs: mustprogress nounwind uwtable
define linkonce_odr hidden void @_ZN5clang4StmtC2ENS0_9StmtClassE(ptr noundef nonnull align 8 dereferenceable(8) %0, i32 noundef %1) unnamed_addr #0 comdat align 2 {
  %3 = alloca ptr, align 8
  %4 = alloca i32, align 4
  store ptr %0, ptr %3, align 8
  store i32 %1, ptr %4, align 4
  %5 = load ptr, ptr %3, align 8
  %6 = load i32, ptr %4, align 4
  %7 = getelementptr inbounds nuw %"class.clang::Stmt", ptr %5, i32 0, i32 0
  %8 = trunc i32 %6 to i8
  store i8 %8, ptr %7, align 8
  %9 = load i8, ptr @_ZN5clang4Stmt17StatisticsEnabledE, align 1
  %10 = trunc i8 %9 to i1
  br i1 %10, label %11, label %13

11:                                               ; preds = %2
  %12 = load i32, ptr %4, align 4
  call void @_ZN5clang4Stmt12addStmtClassENS0_9StmtClassE(i32 noundef %12)
  br label %13

13:                                               ; preds = %11, %2
  ret void
}

; Function Attrs: mustprogress nounwind uwtable
define linkonce_odr hidden void @_ZN5clang22OMPExecutableDirectiveC2ENS_4Stmt9StmtClassEN4llvm3omp9DirectiveENS_14SourceLocationES6_(ptr noundef nonnull align 8 dereferenceable(32) %0, i32 noundef %1, i32 noundef %2, i32 %3, i32 %4) unnamed_addr #0 comdat align 2 {
  %6 = alloca %"class.clang::SourceLocation", align 4
  %7 = alloca %"class.clang::SourceLocation", align 4
  %8 = alloca ptr, align 8
  %9 = alloca i32, align 4
  %10 = alloca i32, align 4
  %11 = getelementptr inbounds nuw %"class.clang::SourceLocation", ptr %6, i32 0, i32 0
  store i32 %3, ptr %11, align 4
  %12 = getelementptr inbounds nuw %"class.clang::SourceLocation", ptr %7, i32 0, i32 0
  store i32 %4, ptr %12, align 4
  store ptr %0, ptr %8, align 8
  store i32 %1, ptr %9, align 4
  store i32 %2, ptr %10, align 4
  %13 = load ptr, ptr %8, align 8
  %14 = load i32, ptr %9, align 4
  call void @_ZN5clang4StmtC2ENS0_9StmtClassE(ptr noundef nonnull align 8 dereferenceable(8) %13, i32 noundef %14)
  %15 = getelementptr inbounds nuw %"class.clang::OMPExecutableDirective", ptr %13, i32 0, i32 1
  %16 = load i32, ptr %10, align 4
  store i32 %16, ptr %15, align 8
  %17 = getelementptr inbounds nuw %"class.clang::OMPExecutableDirective", ptr %13, i32 0, i32 2
  call void @llvm.memcpy.p0.p0.i64(ptr align 4 %17, ptr align 4 %6, i64 4, i1 false)
  %18 = getelementptr inbounds nuw %"class.clang::OMPExecutableDirective", ptr %13, i32 0, i32 3
  call void @llvm.memcpy.p0.p0.i64(ptr align 8 %18, ptr align 4 %7, i64 4, i1 false)
  %19 = getelementptr inbounds nuw %"class.clang::OMPExecutableDirective", ptr %13, i32 0, i32 4
  store ptr null, ptr %19, align 8
  ret void
}

; Function Attrs: mustprogress nounwind uwtable
define linkonce_odr hidden void @_ZN5clang14SourceLocationC2Ev(ptr noundef nonnull align 4 dereferenceable(4) %0) unnamed_addr #0 comdat align 2 {
  %2 = alloca ptr, align 8
  store ptr %0, ptr %2, align 8
  %3 = load ptr, ptr %2, align 8
  %4 = getelementptr inbounds nuw %"class.clang::SourceLocation", ptr %3, i32 0, i32 0
  store i32 0, ptr %4, align 4
  ret void
}

; Function Attrs: mustprogress nounwind uwtable
define linkonce_odr hidden void @_ZN5clang29OMPCancellationPointDirectiveC2Ev(ptr noundef nonnull align 8 dereferenceable(36) %0) unnamed_addr #0 comdat align 2 {
  %2 = alloca ptr, align 8
  %3 = alloca %"class.clang::SourceLocation", align 4
  %4 = alloca %"class.clang::SourceLocation", align 4
  store ptr %0, ptr %2, align 8
  %5 = load ptr, ptr %2, align 8
  call void @llvm.memset.p0.i64(ptr align 4 %3, i8 0, i64 4, i1 false)
  call void @_ZN5clang14SourceLocationC2Ev(ptr noundef nonnull align 4 dereferenceable(4) %3) #6
  call void @llvm.memset.p0.i64(ptr align 4 %4, i8 0, i64 4, i1 false)
  call void @_ZN5clang14SourceLocationC2Ev(ptr noundef nonnull align 4 dereferenceable(4) %4) #6
  %6 = getelementptr inbounds nuw %"class.clang::SourceLocation", ptr %3, i32 0, i32 0
  %7 = load i32, ptr %6, align 4
  %8 = getelementptr inbounds nuw %"class.clang::SourceLocation", ptr %4, i32 0, i32 0
  %9 = load i32, ptr %8, align 4
  call void @_ZN5clang22OMPExecutableDirectiveC2ENS_4Stmt9StmtClassEN4llvm3omp9DirectiveENS_14SourceLocationES6_(ptr noundef nonnull align 8 dereferenceable(32) %5, i32 noundef 218, i32 noundef 10, i32 %7, i32 %9)
  %10 = getelementptr inbounds nuw %"class.clang::OMPCancellationPointDirective", ptr %5, i32 0, i32 1
  store i32 100, ptr %10, align 8
  ret void
}

; Function Attrs: mustprogress nounwind uwtable
define dso_local noundef ptr @_ZN5clang29OMPCancellationPointDirective11CreateEmptyERKNS_10ASTContextENS_4Stmt10EmptyShellE(ptr noundef nonnull align 8 dereferenceable(23096) %0) #0 align 2 {
  %2 = alloca ptr, align 8
  store ptr %0, ptr %2, align 8
  %3 = load ptr, ptr %2, align 8
  %4 = call noundef ptr @_ZN5clang4StmtnwEmRKNS_10ASTContextEj(i64 noundef 40, ptr noundef nonnull align 8 dereferenceable(23096) %3, i32 noundef 8)
  call void @_ZN5clang29OMPCancellationPointDirectiveC2Ev(ptr noundef nonnull align 8 dereferenceable(36) %4)
  ret ptr %4
}